; Function Attrs: mustprogress nofree norecurse nosync nounwind willreturn memory(argmem: readwrite) uwtable
define void @_ZN30grpc_server_security_connectorC2ESt17basic_string_viewIcSt11char_traitsIcEEN9grpc_core13RefCountedPtrI23grpc_server_credentialsEE(ptr noundef nonnull writeonly align 8 captures(none) dereferenceable(40) initializes((0, 40)) %0, i64 %1, ptr %2, ptr noundef captures(none) %3) unnamed_addr #3 align 2 personality ptr @__gxx_personality_v0 {
  %5 = getelementptr inbounds nuw i8, ptr %0, i64 8
  store i64 1, ptr %5, align 8, !tbaa !3
  %6 = getelementptr inbounds nuw i8, ptr %0, i64 16
  store i64 %1, ptr %6, align 8, !tbaa !8
  %.sroa.2.0..sroa_idx.i = getelementptr inbounds nuw i8, ptr %0, i64 24
  store ptr %2, ptr %.sroa.2.0..sroa_idx.i, align 8, !tbaa !9
  store ptr getelementptr inbounds nuw inrange(-16, 56) (i8, ptr @_ZTV30grpc_server_security_connector, i64 16), ptr %0, align 8, !tbaa !12
  %7 = getelementptr inbounds nuw i8, ptr %0, i64 32
  store ptr null, ptr %7, align 8, !tbaa !27
  %8 = load ptr, ptr %3, align 8, !tbaa !27
  store ptr %8, ptr %7, align 8, !tbaa !27
  store ptr null, ptr %3, align 8, !tbaa !27
  ret void
}